target datalayout = "e-m:e-p270:32:32-p271:32:32-p272:64:64-i64:64-i128:128-f80:128-n8:16:32:64-S128"
target triple = "x86_64-pc-linux-gnu"

%struct.OSQPVectorf_ = type { ptr, i64 }

; Function Attrs: nounwind uwtable
define i64 @OSQPVectorf_in_reccone(ptr noundef %0, ptr noundef %1, ptr noundef %2, double noundef %3, double noundef %4) #0 {
  %6 = alloca i64, align 8
  %7 = alloca ptr, align 8
  %8 = alloca ptr, align 8
  %9 = alloca ptr, align 8
  %10 = alloca double, align 8
  %11 = alloca double, align 8
  %12 = alloca i64, align 8
  %13 = alloca i64, align 8
  %14 = alloca ptr, align 8
  %15 = alloca ptr, align 8
  %16 = alloca ptr, align 8
  store ptr %0, ptr %7, align 8
  store ptr %1, ptr %8, align 8
  store ptr %2, ptr %9, align 8
  store double %3, ptr %10, align 8
  store double %4, ptr %11, align 8
  %17 = load ptr, ptr %7, align 8
  %18 = getelementptr inbounds %struct.OSQPVectorf_, ptr %17, i32 0, i32 1
  %19 = load i64, ptr %18, align 8
  store i64 %19, ptr %13, align 8
  %20 = load ptr, ptr %7, align 8
  %21 = getelementptr inbounds %struct.OSQPVectorf_, ptr %20, i32 0, i32 0
  %22 = load ptr, ptr %21, align 8
  store ptr %22, ptr %14, align 8
  %23 = load ptr, ptr %8, align 8
  %24 = getelementptr inbounds %struct.OSQPVectorf_, ptr %23, i32 0, i32 0
  %25 = load ptr, ptr %24, align 8
  store ptr %25, ptr %15, align 8
  %26 = load ptr, ptr %9, align 8
  %27 = getelementptr inbounds %struct.OSQPVectorf_, ptr %26, i32 0, i32 0
  %28 = load ptr, ptr %27, align 8
  store ptr %28, ptr %16, align 8
  store i64 0, ptr %12, align 8
  br label %29

29:                                               ; preds = %65, %5
  %30 = load i64, ptr %12, align 8
  %31 = load i64, ptr %13, align 8
  %32 = icmp slt i64 %30, %31
  br i1 %32, label %33, label %68

33:                                               ; preds = %29
  %34 = load ptr, ptr %16, align 8
  %35 = load i64, ptr %12, align 8
  %36 = getelementptr inbounds double, ptr %34, i64 %35
  %37 = load double, ptr %36, align 8
  %38 = load double, ptr %10, align 8
  %39 = fcmp olt double %37, %38
  br i1 %39, label %40, label %47

40:                                               ; preds = %33
  %41 = load ptr, ptr %14, align 8
  %42 = load i64, ptr %12, align 8
  %43 = getelementptr inbounds double, ptr %41, i64 %42
  %44 = load double, ptr %43, align 8
  %45 = load double, ptr %11, align 8
  %46 = fcmp ogt double %44, %45
  br i1 %46, label %63, label %47

47:                                               ; preds = %40, %33
  %48 = load ptr, ptr %15, align 8
  %49 = load i64, ptr %12, align 8
  %50 = getelementptr inbounds double, ptr %48, i64 %49
  %51 = load double, ptr %50, align 8
  %52 = load double, ptr %10, align 8
  %53 = fneg double %52
  %54 = fcmp ogt double %51, %53
  br i1 %54, label %55, label %64

55:                                               ; preds = %47
  %56 = load ptr, ptr %14, align 8
  %57 = load i64, ptr %12, align 8
  %58 = getelementptr inbounds double, ptr %56, i64 %57
  %59 = load double, ptr %58, align 8
  %60 = load double, ptr %11, align 8
  %61 = fneg double %60
  %62 = fcmp olt double %59, %61
  br i1 %62, label %63, label %64

63:                                               ; preds = %55, %40
  store i64 0, ptr %6, align 8
  br label %69

64:                                               ; preds = %55, %47
  br label %65

65:                                               ; preds = %64
  %66 = load i64, ptr %12, align 8
  %67 = add nsw i64 %66, 1
  store i64 %67, ptr %12, align 8
  br label %29, !llvm.loop !39

68:                                               ; preds = %29
  store i64 1, ptr %6, align 8
  br label %69

69:                                               ; preds = %68, %63
  %70 = load i64, ptr %6, align 8
  ret i64 %70
}