; Function Attrs: nofree norecurse nosync nounwind memory(read, inaccessiblemem: none) uwtable
define noundef i64 @OSQPVectorf_in_reccone(ptr nocapture noundef readonly %0, ptr nocapture noundef readonly %1, ptr nocapture noundef readonly %2, double noundef %3, double noundef %4) local_unnamed_addr #0 {
  %6 = getelementptr inbounds i8, ptr %0, i64 8
  %7 = load i64, ptr %6, align 8
  %8 = load ptr, ptr %0, align 8
  %9 = load ptr, ptr %1, align 8
  %10 = load ptr, ptr %2, align 8
  %11 = icmp sgt i64 %7, 0
  br i1 %11, label %.lr.ph, label %._crit_edge

.lr.ph:                                           ; preds = %5
  %12 = fneg double %3
  %13 = fneg double %4
  br label %14

14:                                               ; preds = %.lr.ph, %30
  %.01920 = phi i64 [ 0, %.lr.ph ], [ %31, %30 ]
  %15 = getelementptr inbounds double, ptr %10, i64 %.01920
  %16 = load double, ptr %15, align 8
  %17 = fcmp olt double %16, %3
  br i1 %17, label %18, label %22

18:                                               ; preds = %14
  %19 = getelementptr inbounds double, ptr %8, i64 %.01920
  %20 = load double, ptr %19, align 8
  %21 = fcmp ogt double %20, %4
  br i1 %21, label %._crit_edge, label %22

22:                                               ; preds = %18, %14
  %23 = getelementptr inbounds double, ptr %9, i64 %.01920
  %24 = load double, ptr %23, align 8
  %25 = fcmp ogt double %24, %12
  br i1 %25, label %26, label %30

26:                                               ; preds = %22
  %27 = getelementptr inbounds double, ptr %8, i64 %.01920
  %28 = load double, ptr %27, align 8
  %29 = fcmp olt double %28, %13
  br i1 %29, label %._crit_edge, label %30

30:                                               ; preds = %22, %26
  %31 = add nuw nsw i64 %.01920, 1
  %exitcond.not = icmp eq i64 %31, %7
  br i1 %exitcond.not, label %._crit_edge, label %14, !llvm.loop !39

._crit_edge:                                      ; preds = %26, %18, %30, %5
  %.0 = phi i64 [ 1, %5 ], [ 1, %30 ], [ 0, %18 ], [ 0, %26 ]
  ret i64 %.0
}